; Function Attrs: nounwind uwtable
define noalias noundef ptr @temporaryLtlStore(ptr noundef readonly %0) local_unnamed_addr #0 {
  %.not = icmp eq ptr %0, null
  br i1 %.not, label %.critedge, label %2

2:                                                ; preds = %1
  %3 = getelementptr inbounds nuw i8, ptr %0, i64 88
  %4 = load ptr, ptr %3, align 8
  %5 = getelementptr i8, ptr %4, i64 4
  %.val14 = load i32, ptr %5, align 4
  %6 = icmp sgt i32 %.val14, 0
  br i1 %6, label %.lr.ph.preheader, label %.critedge

.lr.ph.preheader:                                 ; preds = %2
  %7 = tail call noalias dereferenceable_or_null(16) ptr @malloc(i64 noundef 16) #17
  %spec.store.select.i = tail call i32 @llvm.umax.i32(i32 %.val14, i32 8)
  %8 = getelementptr inbounds nuw i8, ptr %7, i64 4
  store i32 0, ptr %8, align 4
  store i32 %spec.store.select.i, ptr %7, align 8
  %9 = zext nneg i32 %spec.store.select.i to i64
  %10 = shl nuw nsw i64 %9, 3
  %11 = tail call noalias ptr @malloc(i64 noundef %10) #17
  %12 = getelementptr inbounds nuw i8, ptr %7, i64 8
  store ptr %11, ptr %12, align 8
  br label %.lr.ph

.lr.ph:                                           ; preds = %.lr.ph.preheader, %Vec_PtrPush.exit
  %indvars.iv = phi i64 [ 0, %.lr.ph.preheader ], [ %indvars.iv.next, %Vec_PtrPush.exit ]
  %13 = phi ptr [ %4, %.lr.ph.preheader ], [ %44, %Vec_PtrPush.exit ]
  %14 = getelementptr i8, ptr %13, i64 8
  %.val15 = load ptr, ptr %14, align 8
  %15 = getelementptr inbounds nuw ptr, ptr %.val15, i64 %indvars.iv
  %16 = load ptr, ptr %15, align 8
  %17 = load i32, ptr %8, align 4
  %18 = load i32, ptr %7, align 8
  %19 = icmp eq i32 %17, %18
  br i1 %19, label %20, label %.Vec_PtrGrow.exit11_crit_edge.i

.Vec_PtrGrow.exit11_crit_edge.i:                  ; preds = %.lr.ph
  %.pre.i = load ptr, ptr %12, align 8
  br label %Vec_PtrPush.exit

20:                                               ; preds = %.lr.ph
  %21 = icmp slt i32 %17, 16
  br i1 %21, label %22, label %29

22:                                               ; preds = %20
  %23 = load ptr, ptr %12, align 8
  %.not9.i.i = icmp eq ptr %23, null
  br i1 %.not9.i.i, label %26, label %24

24:                                               ; preds = %22
  %25 = tail call dereferenceable_or_null(128) ptr @realloc(ptr noundef nonnull %23, i64 noundef 128) #18
  br label %Vec_PtrGrow.exit.i

26:                                               ; preds = %22
  %27 = tail call noalias dereferenceable_or_null(128) ptr @malloc(i64 noundef 128) #17
  br label %Vec_PtrGrow.exit.i

Vec_PtrGrow.exit.i:                               ; preds = %26, %24
  %28 = phi ptr [ %25, %24 ], [ %27, %26 ]
  store ptr %28, ptr %12, align 8
  store i32 16, ptr %7, align 8
  br label %Vec_PtrPush.exit

29:                                               ; preds = %20
  %30 = shl nuw nsw i32 %17, 1
  %31 = load ptr, ptr %12, align 8
  %.not9.i10.i = icmp eq ptr %31, null
  %32 = zext nneg i32 %30 to i64
  %33 = shl nuw nsw i64 %32, 3
  br i1 %.not9.i10.i, label %36, label %34

34:                                               ; preds = %29
  %35 = tail call ptr @realloc(ptr noundef nonnull %31, i64 noundef %33) #18
  br label %38

36:                                               ; preds = %29
  %37 = tail call noalias ptr @malloc(i64 noundef %33) #17
  br label %38

38:                                               ; preds = %36, %34
  %39 = phi ptr [ %35, %34 ], [ %37, %36 ]
  store ptr %39, ptr %12, align 8
  store i32 %30, ptr %7, align 8
  br label %Vec_PtrPush.exit

Vec_PtrPush.exit:                                 ; preds = %.Vec_PtrGrow.exit11_crit_edge.i, %Vec_PtrGrow.exit.i, %38
  %40 = phi ptr [ %.pre.i, %.Vec_PtrGrow.exit11_crit_edge.i ], [ %39, %38 ], [ %28, %Vec_PtrGrow.exit.i ]
  %41 = add nsw i32 %17, 1
  store i32 %41, ptr %8, align 4
  %42 = sext i32 %17 to i64
  %43 = getelementptr inbounds ptr, ptr %40, i64 %42
  store ptr %16, ptr %43, align 8
  %indvars.iv.next = add nuw nsw i64 %indvars.iv, 1
  %44 = load ptr, ptr %3, align 8
  %45 = getelementptr i8, ptr %44, i64 4
  %.val = load i32, ptr %45, align 4
  %46 = sext i32 %.val to i64
  %47 = icmp slt i64 %indvars.iv.next, %46
  br i1 %47, label %.lr.ph, label %.critedge, !llvm.loop !6

.critedge:                                        ; preds = %Vec_PtrPush.exit, %1, %2
  %.011 = phi ptr [ null, %2 ], [ null, %1 ], [ %7, %Vec_PtrPush.exit ]
  ret ptr %.011
}